Certificate:
    Data:
        Version: 3 (0x2)
        Serial Number: 2 (0x2)
        Signature Algorithm: sha256WithRSAEncryption
        Issuer: C=FR, ST=Radius, L=Somewhere, O=Example Inc./emailAddress=admin@example.org, CN=Example Certificate Authority
        Validity
            Not Before: May 20 10:31:32 2025 GMT
            Not After : Jul 19 10:31:32 2025 GMT
        Subject: C=FR, ST=Radius, O=Example Inc., CN=user@example.org/emailAddress=user@example.org
        Subject Public Key Info:
            Public Key Algorithm: rsaEncryption
                Public-Key: (2048 bit)
                Modulus:
                    00:e2:3b:1e:f7:8b:5c:95:25:49:14:61:9d:1b:94:
                    7f:25:03:a9:4b:10:6c:1e:3f:57:a7:a4:00:59:ba:
                    d3:9d:1f:90:ab:ed:87:a0:40:58:a8:d2:59:c2:68:
                    5f:5e:43:39:54:16:21:fc:bb:2d:a9:47:9d:ac:06:
                    fd:3e:8b:bc:22:ae:73:19:a5:6a:9e:25:51:52:4c:
                    ad:66:14:5c:a2:ee:9f:3f:3e:44:1d:e9:1f:60:a1:
                    2d:e1:74:9c:28:7c:a9:2c:7e:7f:6e:d1:0c:c1:6a:
                    6d:e7:6c:98:8c:e8:fd:8e:09:7f:af:e5:f7:e2:62:
                    74:14:3e:d1:05:3a:5f:15:25:6c:c8:e1:b4:66:3a:
                    f0:ec:e5:78:0e:e5:9b:bf:6b:9e:24:71:09:a9:f2:
                    6f:d9:4d:70:a2:de:01:58:b6:16:55:04:ce:53:16:
                    75:27:95:7c:af:ef:c5:30:8e:d9:67:9e:1a:72:3b:
                    44:0a:f1:4e:93:57:28:99:ec:af:1b:67:49:49:70:
                    dd:74:5f:b3:d5:62:09:dd:57:25:51:e8:14:8e:59:
                    69:64:80:bb:05:38:7e:d3:24:c6:77:a5:4d:00:5b:
                    9a:85:a1:5e:14:06:71:b1:c6:7e:af:23:16:21:e9:
                    b2:3f:96:68:a0:a7:e5:37:5f:f6:d6:74:ad:08:8f:
                    9d:99
                Exponent: 65537 (0x10001)
        X509v3 extensions:
            X509v3 Extended Key Usage: 
                TLS Web Client Authentication
            X509v3 CRL Distribution Points: 
                Full Name:
                  URI:http://www.example.com/example_ca.crl
            X509v3 Subject Key Identifier: 
                CB:0C:02:C1:31:E2:00:46:F8:A9:63:B4:65:3F:40:0B:E2:3F:5C:1A
            X509v3 Authority Key Identifier: 
                17:90:10:53:0E:53:C7:8E:6C:2D:A4:85:86:E8:2B:39:F8:4B:41:BC
    Signature Algorithm: sha256WithRSAEncryption
    Signature Value:
        03:c3:33:cc:b9:db:0d:52:8a:ae:50:c5:e4:cd:77:cb:10:86:
        43:66:3a:1f:9a:e8:53:9e:c7:76:43:ae:b2:5d:05:a2:b4:35:
        f8:53:52:d0:12:44:fb:b1:22:55:18:3a:7b:36:00:8a:41:c9:
        7e:45:77:16:de:91:b3:ca:92:37:03:bd:6e:a7:14:e5:60:f1:
        f9:08:f7:5e:d2:a1:a9:89:f5:15:e1:f1:e4:f9:ee:71:3f:f0:
        2b:05:57:8b:24:e4:76:bf:76:da:55:81:87:16:e4:af:93:fe:
        c7:3d:71:db:73:57:69:c0:3d:d5:94:ef:bb:15:1c:32:a2:5e:
        2a:bc:4a:3b:34:ca:25:96:fd:4f:cb:ec:0a:9e:45:c1:03:3e:
        89:3b:a9:3b:b2:f4:6f:ce:75:4f:15:37:ee:db:9c:e7:a6:7c:
        d5:61:7e:29:c0:f1:fd:30:f4:6e:4e:90:eb:dd:2b:d7:19:61:
        80:ea:c1:b1:40:05:6d:d9:9d:81:28:37:2c:dc:22:3a:71:51:
        f5:f6:54:ee:34:a6:a8:f6:0e:5b:2d:bb:11:9f:87:03:9a:55:
        92:ad:ff:ee:9e:fe:c0:eb:60:f2:5d:dc:5d:52:c6:2f:ed:8e:
        39:34:5b:ae:15:37:25:0e:e7:21:bb:10:ac:06:27:24:5d:28:
        4f:6c:13:f7
-----BEGIN CERTIFICATE-----
MIIEETCCAvmgAwIBAgIBAjANBgkqhkiG9w0BAQsFADCBkzELMAkGA1UEBhMCRlIx
DzANBgNVBAgMBlJhZGl1czESMBAGA1UEBwwJU29tZXdoZXJlMRUwEwYDVQQKDAxF
eGFtcGxlIEluYy4xIDAeBgkqhkiG9w0BCQEWEWFkbWluQGV4YW1wbGUub3JnMSYw
JAYDVQQDDB1FeGFtcGxlIENlcnRpZmljYXRlIEF1dGhvcml0eTAeFw0yNTA1MjAx
MDMxMzJaFw0yNTA3MTkxMDMxMzJaMHExCzAJBgNVBAYTAkZSMQ8wDQYDVQQIDAZS
YWRpdXMxFTATBgNVBAoMDEV4YW1wbGUgSW5jLjEZMBcGA1UEAwwQdXNlckBleGFt
cGxlLm9yZzEfMB0GCSqGSIb3DQEJARYQdXNlckBleGFtcGxlLm9yZzCCASIwDQYJ
KoZIhvcNAQEBBQADggEPADCCAQoCggEBAOI7HveLXJUlSRRhnRuUfyUDqUsQbB4/
V6ekAFm6050fkKvth6BAWKjSWcJoX15DOVQWIfy7LalHnawG/T6LvCKucxmlap4l
UVJMrWYUXKLunz8+RB3pH2ChLeF0nCh8qSx+f27RDMFqbedsmIzo/Y4Jf6/l9+Ji
dBQ+0QU6XxUlbMjhtGY68OzleA7lm79rniRxCanyb9lNcKLeAVi2FlUEzlMWdSeV
fK/vxTCO2WeeGnI7RArxTpNXKJnsrxtnSUlw3XRfs9ViCd1XJVHoFI5ZaWSAuwU4
ftMkxnelTQBbmoWhXhQGcbHGfq8jFiHpsj+WaKCn5Tdf9tZ0rQiPnZkCAwEAAaOB
kDCBjTATBgNVHSUEDDAKBggrBgEFBQcDAjA2BgNVHR8ELzAtMCugKaAnhiVodHRw
Oi8vd3d3LmV4YW1wbGUuY29tL2V4YW1wbGVfY2EuY3JsMB0GA1UdDgQWBBTLDALB
MeIARvipY7RlP0AL4j9cGjAfBgNVHSMEGDAWgBQXkBBTDlPHjmwtpIWG6Cs5+EtB
vDANBgkqhkiG9w0BAQsFAAOCAQEAA8MzzLnbDVKKrlDF5M13yxCGQ2Y6H5roU57H
dkOusl0ForQ1+FNS0BJE+7EiVRg6ezYAikHJfkV3Ft6Rs8qSNwO9bqcU5WDx+Qj3
XtKhqYn1FeHx5PnucT/wKwVXiyTkdr922lWBhxbkr5P+xz1x23NXacA91ZTvuxUc
MqJeKrxKOzTKJZb9T8vsCp5FwQM+iTupO7L0b851TxU37tuc56Z81WF+KcDx/TD0
bk6Q690r1xlhgOrBsUAFbdmdgSg3LNwiOnFR9fZU7jSmqPYOWy27EZ+HA5pVkq3/
7p7+wOtg8l3cXVLGL+2OOTRbrhU3JQ7nIbsQrAYnJF0oT2wT9w==
-----END CERTIFICATE-----
